; Function Attrs: mustprogress nofree norecurse nosync nounwind willreturn memory(argmem: read) uwtable
define dso_local range(i32 0, 2) i32 @looks_like_command_line_option(ptr noundef readonly %0) local_unnamed_addr #22 {
  %.not = icmp eq ptr %0, null
  br i1 %.not, label %6, label %2

2:                                                ; preds = %1
  %3 = load i8, ptr %0, align 1, !tbaa !14
  %4 = icmp eq i8 %3, 45
  %5 = zext i1 %4 to i32
  br label %6

6:                                                ; preds = %2, %1
  %7 = phi i32 [ 0, %1 ], [ %5, %2 ]
  ret i32 %7
}